target datalayout = "e-m:e-p270:32:32-p271:32:32-p272:64:64-i64:64-i128:128-f80:128-n8:16:32:64-S128"
target triple = "x86_64-pc-linux-gnu"

; Function Attrs: nounwind uwtable
define internal void @SDL_Convert71To41(ptr noundef %0, ptr noundef %1, i32 noundef %2) #0 {
  %4 = alloca ptr, align 8
  %5 = alloca ptr, align 8
  %6 = alloca i32, align 4
  %7 = alloca i32, align 4
  %8 = alloca float, align 4
  %9 = alloca float, align 4
  %10 = alloca float, align 4
  store ptr %0, ptr %4, align 8
  store ptr %1, ptr %5, align 8
  store i32 %2, ptr %6, align 4
  call void @llvm.lifetime.start.p0(i64 4, ptr %7) #7
  %11 = load i32, ptr %6, align 4
  store i32 %11, ptr %7, align 4
  br label %12

12:                                               ; preds = %66, %3
  %13 = load i32, ptr %7, align 4
  %14 = icmp ne i32 %13, 0
  br i1 %14, label %15, label %73

15:                                               ; preds = %12
  call void @llvm.lifetime.start.p0(i64 4, ptr %8) #7
  %16 = load ptr, ptr %5, align 8
  %17 = getelementptr inbounds float, ptr %16, i64 2
  %18 = load float, ptr %17, align 4
  store float %18, ptr %8, align 4
  call void @llvm.lifetime.start.p0(i64 4, ptr %9) #7
  %19 = load ptr, ptr %5, align 8
  %20 = getelementptr inbounds float, ptr %19, i64 6
  %21 = load float, ptr %20, align 4
  store float %21, ptr %9, align 4
  call void @llvm.lifetime.start.p0(i64 4, ptr %10) #7
  %22 = load ptr, ptr %5, align 8
  %23 = getelementptr inbounds float, ptr %22, i64 7
  %24 = load float, ptr %23, align 4
  store float %24, ptr %10, align 4
  %25 = load ptr, ptr %5, align 8
  %26 = getelementptr inbounds float, ptr %25, i64 0
  %27 = load float, ptr %26, align 4
  %28 = load float, ptr %8, align 4
  %29 = fmul float %28, 0x3FD5D2F1A0000000
  %30 = call float @llvm.fmuladd.f32(float %27, float 0x3FDEE978E0000000, float %29)
  %31 = load float, ptr %9, align 4
  %32 = call float @llvm.fmuladd.f32(float %31, float 0x3FC6872B00000000, float %30)
  %33 = load ptr, ptr %4, align 8
  %34 = getelementptr inbounds float, ptr %33, i64 0
  store float %32, ptr %34, align 4
  %35 = load ptr, ptr %5, align 8
  %36 = getelementptr inbounds float, ptr %35, i64 1
  %37 = load float, ptr %36, align 4
  %38 = load float, ptr %8, align 4
  %39 = fmul float %38, 0x3FD5D2F1A0000000
  %40 = call float @llvm.fmuladd.f32(float %37, float 0x3FDEE978E0000000, float %39)
  %41 = load float, ptr %10, align 4
  %42 = call float @llvm.fmuladd.f32(float %41, float 0x3FC6872B00000000, float %40)
  %43 = load ptr, ptr %4, align 8
  %44 = getelementptr inbounds float, ptr %43, i64 1
  store float %42, ptr %44, align 4
  %45 = load ptr, ptr %5, align 8
  %46 = getelementptr inbounds float, ptr %45, i64 3
  %47 = load float, ptr %46, align 4
  %48 = load ptr, ptr %4, align 8
  %49 = getelementptr inbounds float, ptr %48, i64 2
  store float %47, ptr %49, align 4
  %50 = load ptr, ptr %5, align 8
  %51 = getelementptr inbounds float, ptr %50, i64 4
  %52 = load float, ptr %51, align 4
  %53 = load float, ptr %9, align 4
  %54 = fmul float %53, 0x3FDCBC6A80000000
  %55 = call float @llvm.fmuladd.f32(float %52, float 0x3FDEE978E0000000, float %54)
  %56 = load ptr, ptr %4, align 8
  %57 = getelementptr inbounds float, ptr %56, i64 3
  store float %55, ptr %57, align 4
  %58 = load ptr, ptr %5, align 8
  %59 = getelementptr inbounds float, ptr %58, i64 5
  %60 = load float, ptr %59, align 4
  %61 = load float, ptr %10, align 4
  %62 = fmul float %61, 0x3FDCBC6A80000000
  %63 = call float @llvm.fmuladd.f32(float %60, float 0x3FDEE978E0000000, float %62)
  %64 = load ptr, ptr %4, align 8
  %65 = getelementptr inbounds float, ptr %64, i64 4
  store float %63, ptr %65, align 4
  call void @llvm.lifetime.end.p0(i64 4, ptr %10) #7
  call void @llvm.lifetime.end.p0(i64 4, ptr %9) #7
  call void @llvm.lifetime.end.p0(i64 4, ptr %8) #7
  br label %66

66:                                               ; preds = %15
  %67 = load i32, ptr %7, align 4
  %68 = add nsw i32 %67, -1
  store i32 %68, ptr %7, align 4
  %69 = load ptr, ptr %5, align 8
  %70 = getelementptr inbounds float, ptr %69, i64 8
  store ptr %70, ptr %5, align 8
  %71 = load ptr, ptr %4, align 8
  %72 = getelementptr inbounds float, ptr %71, i64 5
  store ptr %72, ptr %4, align 8
  br label %12, !llvm.loop !97

73:                                               ; preds = %12
  call void @llvm.lifetime.end.p0(i64 4, ptr %7) #7
  ret void
}