; Function Attrs: nofree norecurse nosync nounwind memory(argmem: readwrite) uwtable
define internal void @SDL_Convert71To41(ptr noundef writeonly captures(none) %0, ptr noundef readonly captures(none) %1, i32 noundef %2) #5 {
  %.not25 = icmp eq i32 %2, 0
  br i1 %.not25, label %._crit_edge, label %.lr.ph

.lr.ph:                                           ; preds = %3, %.lr.ph
  %.028 = phi ptr [ %34, %.lr.ph ], [ %0, %3 ]
  %.02327 = phi ptr [ %33, %.lr.ph ], [ %1, %3 ]
  %.02426 = phi i32 [ %32, %.lr.ph ], [ %2, %3 ]
  %4 = getelementptr inbounds nuw i8, ptr %.02327, i64 8
  %5 = load float, ptr %4, align 4
  %6 = getelementptr inbounds nuw i8, ptr %.02327, i64 24
  %7 = load float, ptr %6, align 4
  %8 = getelementptr inbounds nuw i8, ptr %.02327, i64 28
  %9 = load float, ptr %8, align 4
  %10 = load float, ptr %.02327, align 4
  %11 = fmul float %5, 0x3FD5D2F1A0000000
  %12 = tail call float @llvm.fmuladd.f32(float %10, float 0x3FDEE978E0000000, float %11)
  %13 = tail call float @llvm.fmuladd.f32(float %7, float 0x3FC6872B00000000, float %12)
  store float %13, ptr %.028, align 4
  %14 = getelementptr inbounds nuw i8, ptr %.02327, i64 4
  %15 = load float, ptr %14, align 4
  %16 = tail call float @llvm.fmuladd.f32(float %15, float 0x3FDEE978E0000000, float %11)
  %17 = tail call float @llvm.fmuladd.f32(float %9, float 0x3FC6872B00000000, float %16)
  %18 = getelementptr inbounds nuw i8, ptr %.028, i64 4
  store float %17, ptr %18, align 4
  %19 = getelementptr inbounds nuw i8, ptr %.02327, i64 12
  %20 = load float, ptr %19, align 4
  %21 = getelementptr inbounds nuw i8, ptr %.028, i64 8
  store float %20, ptr %21, align 4
  %22 = getelementptr inbounds nuw i8, ptr %.02327, i64 16
  %23 = load float, ptr %22, align 4
  %24 = fmul float %7, 0x3FDCBC6A80000000
  %25 = tail call float @llvm.fmuladd.f32(float %23, float 0x3FDEE978E0000000, float %24)
  %26 = getelementptr inbounds nuw i8, ptr %.028, i64 12
  store float %25, ptr %26, align 4
  %27 = getelementptr inbounds nuw i8, ptr %.02327, i64 20
  %28 = load float, ptr %27, align 4
  %29 = fmul float %9, 0x3FDCBC6A80000000
  %30 = tail call float @llvm.fmuladd.f32(float %28, float 0x3FDEE978E0000000, float %29)
  %31 = getelementptr inbounds nuw i8, ptr %.028, i64 16
  store float %30, ptr %31, align 4
  %32 = add nsw i32 %.02426, -1
  %33 = getelementptr inbounds nuw i8, ptr %.02327, i64 32
  %34 = getelementptr inbounds nuw i8, ptr %.028, i64 20
  %.not = icmp eq i32 %32, 0
  br i1 %.not, label %._crit_edge, label %.lr.ph, !llvm.loop !103

._crit_edge:                                      ; preds = %.lr.ph, %3
  ret void
}